; Function Attrs: nounwind uwtable
define dso_local void @typenameTypeIdAndMod(ptr noundef %0, ptr noundef readonly captures(none) %1, ptr noundef writeonly captures(none) initializes((0, 4)) %2, ptr noundef captures(address_is_null) %3) local_unnamed_addr #0 {
  %5 = tail call ptr @typenameType(ptr noundef %0, ptr noundef %1, ptr noundef %3)
  %6 = getelementptr i8, ptr %5, i64 16
  %.val = load ptr, ptr %6, align 8
  %7 = getelementptr inbounds nuw i8, ptr %.val, i64 22
  %8 = load i8, ptr %7, align 2
  %9 = zext i8 %8 to i64
  %10 = getelementptr inbounds nuw i8, ptr %.val, i64 %9
  %11 = load i32, ptr %10, align 4
  store i32 %11, ptr %2, align 4
  tail call void @ReleaseSysCache(ptr noundef nonnull %5) #7
  ret void
}